target datalayout = "e-m:e-p270:32:32-p271:32:32-p272:64:64-i64:64-i128:128-f80:128-n8:16:32:64-S128"
target triple = "x86_64-pc-linux-gnu"

%struct.PlanState = type { i32, ptr, ptr, ptr, ptr, ptr, ptr, ptr, ptr, ptr, ptr, ptr, ptr, ptr, ptr, ptr, ptr, ptr, i8, ptr, ptr, ptr, ptr, ptr, i8, i8, i8, i8, i8, i8, i8, i8 }
%struct.HashJoinState = type { %struct.JoinState, ptr, ptr, ptr, i32, i32, i32, ptr, ptr, ptr, ptr, ptr, ptr, i32, i8, i8 }
%struct.JoinState = type { %struct.PlanState, i32, i8, ptr }

; Function Attrs: nounwind uwtable
define dso_local void @ExecPrepHashTableForUnmatched(ptr noundef %0) #0 {
  %2 = alloca ptr, align 8
  store ptr %0, ptr %2, align 8
  %3 = load ptr, ptr %2, align 8
  %4 = getelementptr inbounds nuw %struct.HashJoinState, ptr %3, i32 0, i32 5
  store i32 0, ptr %4, align 4
  %5 = load ptr, ptr %2, align 8
  %6 = getelementptr inbounds nuw %struct.HashJoinState, ptr %5, i32 0, i32 6
  store i32 0, ptr %6, align 8
  %7 = load ptr, ptr %2, align 8
  %8 = getelementptr inbounds nuw %struct.HashJoinState, ptr %7, i32 0, i32 7
  store ptr null, ptr %8, align 8
  ret void
}